target datalayout = "e-m:e-p270:32:32-p271:32:32-p272:64:64-i64:64-i128:128-f80:128-n8:16:32:64-S128"
target triple = "x86_64-pc-linux-gnu"

%"class.std::__cxx11::basic_string" = type { %"struct.std::__cxx11::basic_string<char>::_Alloc_hider", i64, %union.anon }
%"struct.std::__cxx11::basic_string<char>::_Alloc_hider" = type { ptr }
%union.anon = type { i64, [8 x i8] }
%"class.std::allocator" = type { i8 }
%"class.std::__cxx11::basic_stringstream" = type { %"class.std::basic_iostream.base", %"class.std::__cxx11::basic_stringbuf", %"class.std::basic_ios" }
%"class.std::basic_iostream.base" = type { %"class.std::basic_istream.base", %"class.std::basic_ostream.base" }
%"class.std::basic_istream.base" = type { ptr, i64 }
%"class.std::basic_ostream.base" = type { ptr }
%"class.std::__cxx11::basic_stringbuf" = type { %"class.std::basic_streambuf", i32, %"class.std::__cxx11::basic_string" }
%"class.std::basic_streambuf" = type { ptr, ptr, ptr, ptr, ptr, ptr, ptr, %"class.std::locale" }
%"class.std::locale" = type { ptr }
%"class.std::basic_ios" = type { %"class.std::ios_base", ptr, i8, i8, ptr, ptr, ptr, ptr }
%"class.std::ios_base" = type { ptr, i64, i64, i32, i32, i32, ptr, %"struct.std::ios_base::_Words", [8 x %"struct.std::ios_base::_Words"], i32, ptr, %"class.std::locale" }
%"struct.std::ios_base::_Words" = type { ptr, i64 }
%"struct.cv::utils::logging::LogTag" = type <{ ptr, i32, [4 x i8] }>

@.str.10 = private unnamed_addr constant [127 x i8] c"generated/home/dtcxzyw/WorkSpace/Projects/compilers/llvm-opt-benchmark/bench/opencv/opencv/modules/imgcodecs/src/grfmt_exr.cpp\00", align 1
@.str.19 = private unnamed_addr constant [178 x i8] c"imgcodecs: OpenEXR codec is disabled. You can enable it via 'OPENCV_IO_ENABLE_OPENEXR' option. Refer for details and cautions here: https://github.com/opencv/opencv/issues/21326\00", align 1
@__func__._ZN2cvL11initOpenEXREv = private unnamed_addr constant [12 x i8] c"initOpenEXR\00", align 1
@_ZZN2cvL16isOpenEXREnabledEvE20PARAM_ENABLE_OPENEXR = internal global i8 0, align 1
@_ZGVZN2cvL16isOpenEXREnabledEvE20PARAM_ENABLE_OPENEXR = internal global i64 0, align 8
@.str.20 = private unnamed_addr constant [25 x i8] c"OPENCV_IO_ENABLE_OPENEXR\00", align 1

; Function Attrs: mustprogress uwtable
define internal noundef zeroext i1 @_ZN2cvL16isOpenEXREnabledEv() #4 personality ptr @__gxx_personality_v0 {
  %1 = alloca ptr, align 8
  %2 = alloca i32, align 4
  %3 = load atomic i8, ptr @_ZGVZN2cvL16isOpenEXREnabledEvE20PARAM_ENABLE_OPENEXR acquire, align 8
  %4 = icmp eq i8 %3, 0
  br i1 %4, label %5, label %12, !prof !30

5:                                                ; preds = %0
  %6 = call i32 @__cxa_guard_acquire(ptr @_ZGVZN2cvL16isOpenEXREnabledEvE20PARAM_ENABLE_OPENEXR) #3
  %7 = icmp ne i32 %6, 0
  br i1 %7, label %8, label %12

8:                                                ; preds = %5
  %9 = invoke noundef zeroext i1 @_ZN2cv5utils29getConfigurationParameterBoolEPKcb(ptr noundef @.str.20, i1 noundef zeroext true)
          to label %10 unwind label %15

10:                                               ; preds = %8
  %11 = zext i1 %9 to i8
  store i8 %11, ptr @_ZZN2cvL16isOpenEXREnabledEvE20PARAM_ENABLE_OPENEXR, align 1
  call void @__cxa_guard_release(ptr @_ZGVZN2cvL16isOpenEXREnabledEvE20PARAM_ENABLE_OPENEXR) #3
  br label %12

12:                                               ; preds = %10, %5, %0
  %13 = load i8, ptr @_ZZN2cvL16isOpenEXREnabledEvE20PARAM_ENABLE_OPENEXR, align 1
  %14 = trunc i8 %13 to i1
  ret i1 %14

15:                                               ; preds = %8
  %16 = landingpad { ptr, i32 }
          cleanup
  %17 = extractvalue { ptr, i32 } %16, 0
  store ptr %17, ptr %1, align 8
  %18 = extractvalue { ptr, i32 } %16, 1
  store i32 %18, ptr %2, align 4
  call void @__cxa_guard_abort(ptr @_ZGVZN2cvL16isOpenEXREnabledEvE20PARAM_ENABLE_OPENEXR) #3
  br label %19

19:                                               ; preds = %15
  %20 = load ptr, ptr %1, align 8
  %21 = load i32, ptr %2, align 4
  %22 = insertvalue { ptr, i32 } poison, ptr %20, 0
  %23 = insertvalue { ptr, i32 } %22, i32 %21, 1
  resume { ptr, i32 } %23
}

; Function Attrs: mustprogress uwtable
define internal void @_ZN2cvL11initOpenEXREv() #4 personality ptr @__gxx_personality_v0 {
  %1 = alloca ptr, align 8
  %2 = alloca i32, align 4
  %3 = alloca ptr, align 8
  %4 = alloca %"class.std::__cxx11::basic_stringstream", align 8
  %5 = alloca ptr, align 8
  %6 = alloca i32, align 4
  %7 = alloca %"class.std::__cxx11::basic_string", align 8
  %8 = alloca %"class.std::__cxx11::basic_string", align 8
  %9 = alloca %"class.std::allocator", align 1
  %10 = call noundef zeroext i1 @_ZN2cvL16isOpenEXREnabledEv()
  br i1 %10, label %69, label %11

11:                                               ; preds = %0
  store ptr @.str.19, ptr %1, align 8
  br label %12

12:                                               ; preds = %11
  store i32 3, ptr %2, align 4
  store ptr null, ptr %3, align 8
  %13 = load ptr, ptr %3, align 8
  %14 = icmp ne ptr %13, null
  br i1 %14, label %16, label %15

15:                                               ; preds = %12
  store ptr null, ptr %3, align 8
  br label %16

16:                                               ; preds = %15, %12
  %17 = load ptr, ptr %3, align 8
  %18 = icmp ne ptr %17, null
  br i1 %18, label %21, label %19

19:                                               ; preds = %16
  %20 = call noundef ptr @_ZN2cv5utils7logging8internal15getGlobalLogTagEv()
  store ptr %20, ptr %3, align 8
  br label %21

21:                                               ; preds = %19, %16
  %22 = load ptr, ptr %3, align 8
  %23 = icmp ne ptr %22, null
  br i1 %23, label %24, label %30

24:                                               ; preds = %21
  %25 = load ptr, ptr %3, align 8
  %26 = getelementptr inbounds %"struct.cv::utils::logging::LogTag", ptr %25, i32 0, i32 1
  %27 = load i32, ptr %26, align 8
  %28 = icmp sgt i32 3, %27
  br i1 %28, label %29, label %30

29:                                               ; preds = %24
  br label %56

30:                                               ; preds = %24, %21
  call void @_ZNSt7__cxx1118basic_stringstreamIcSt11char_traitsIcESaIcEEC1Ev(ptr noundef nonnull align 8 dereferenceable(128) %4)
  %31 = getelementptr inbounds i8, ptr %4, i64 16
  %32 = load ptr, ptr %1, align 8
  %33 = invoke noundef nonnull align 8 dereferenceable(8) ptr @_ZStlsISt11char_traitsIcEERSt13basic_ostreamIcT_ES5_PKc(ptr noundef nonnull align 8 dereferenceable(8) %31, ptr noundef %32)
          to label %34 unwind label %47

34:                                               ; preds = %30
  %35 = load ptr, ptr %3, align 8
  %36 = icmp ne ptr %35, null
  br i1 %36, label %37, label %41

37:                                               ; preds = %34
  %38 = load ptr, ptr %3, align 8
  %39 = getelementptr inbounds %"struct.cv::utils::logging::LogTag", ptr %38, i32 0, i32 0
  %40 = load ptr, ptr %39, align 8
  br label %42

41:                                               ; preds = %34
  br label %42

42:                                               ; preds = %41, %37
  %43 = phi ptr [ %40, %37 ], [ null, %41 ]
  invoke void @_ZNKSt7__cxx1118basic_stringstreamIcSt11char_traitsIcESaIcEE3strEv(ptr dead_on_unwind writable sret(%"class.std::__cxx11::basic_string") align 8 %7, ptr noundef nonnull align 8 dereferenceable(128) %4)
          to label %44 unwind label %47

44:                                               ; preds = %42
  %45 = call noundef ptr @_ZNKSt7__cxx1112basic_stringIcSt11char_traitsIcESaIcEE5c_strEv(ptr noundef nonnull align 8 dereferenceable(32) %7) #3
  invoke void @_ZN2cv5utils7logging8internal17writeLogMessageExENS1_8LogLevelEPKcS5_iS5_S5_(i32 noundef 3, ptr noundef %43, ptr noundef @.str.10, i32 noundef 102, ptr noundef @__func__._ZN2cvL11initOpenEXREv, ptr noundef %45)
          to label %46 unwind label %51

46:                                               ; preds = %44
  call void @_ZNSt7__cxx1112basic_stringIcSt11char_traitsIcESaIcEED1Ev(ptr noundef nonnull align 8 dereferenceable(32) %7) #3
  call void @_ZNSt7__cxx1118basic_stringstreamIcSt11char_traitsIcESaIcEED1Ev(ptr noundef nonnull align 8 dereferenceable(128) %4) #3
  br label %56

47:                                               ; preds = %42, %30
  %48 = landingpad { ptr, i32 }
          cleanup
  %49 = extractvalue { ptr, i32 } %48, 0
  store ptr %49, ptr %5, align 8
  %50 = extractvalue { ptr, i32 } %48, 1
  store i32 %50, ptr %6, align 4
  br label %55

51:                                               ; preds = %44
  %52 = landingpad { ptr, i32 }
          cleanup
  %53 = extractvalue { ptr, i32 } %52, 0
  store ptr %53, ptr %5, align 8
  %54 = extractvalue { ptr, i32 } %52, 1
  store i32 %54, ptr %6, align 4
  call void @_ZNSt7__cxx1112basic_stringIcSt11char_traitsIcESaIcEED1Ev(ptr noundef nonnull align 8 dereferenceable(32) %7) #3
  br label %55

55:                                               ; preds = %51, %47
  call void @_ZNSt7__cxx1118basic_stringstreamIcSt11char_traitsIcESaIcEED1Ev(ptr noundef nonnull align 8 dereferenceable(128) %4) #3
  br label %70

56:                                               ; preds = %46, %29
  %57 = load ptr, ptr %1, align 8
  call void @_ZNSaIcEC1Ev(ptr noundef nonnull align 1 dereferenceable(1) %9) #3
  invoke void @_ZNSt7__cxx1112basic_stringIcSt11char_traitsIcESaIcEEC1EPKcRKS3_(ptr noundef nonnull align 8 dereferenceable(32) %8, ptr noundef %57, ptr noundef nonnull align 1 dereferenceable(1) %9)
          to label %58 unwind label %60

58:                                               ; preds = %56
  invoke void @_ZN2cv5errorEiRKNSt7__cxx1112basic_stringIcSt11char_traitsIcESaIcEEEPKcS9_i(i32 noundef -213, ptr noundef nonnull align 8 dereferenceable(32) %8, ptr noundef @__func__._ZN2cvL11initOpenEXREv, ptr noundef @.str.10, i32 noundef 103) #19
          to label %59 unwind label %64

59:                                               ; preds = %58
  unreachable

60:                                               ; preds = %56
  %61 = landingpad { ptr, i32 }
          cleanup
  %62 = extractvalue { ptr, i32 } %61, 0
  store ptr %62, ptr %5, align 8
  %63 = extractvalue { ptr, i32 } %61, 1
  store i32 %63, ptr %6, align 4
  br label %68

64:                                               ; preds = %58
  %65 = landingpad { ptr, i32 }
          cleanup
  %66 = extractvalue { ptr, i32 } %65, 0
  store ptr %66, ptr %5, align 8
  %67 = extractvalue { ptr, i32 } %65, 1
  store i32 %67, ptr %6, align 4
  call void @_ZNSt7__cxx1112basic_stringIcSt11char_traitsIcESaIcEED1Ev(ptr noundef nonnull align 8 dereferenceable(32) %8) #3
  br label %68

68:                                               ; preds = %64, %60
  call void @_ZNSaIcED1Ev(ptr noundef nonnull align 1 dereferenceable(1) %9) #3
  br label %70

69:                                               ; preds = %0
  ret void

70:                                               ; preds = %68, %55
  %71 = load ptr, ptr %5, align 8
  %72 = load i32, ptr %6, align 4
  %73 = insertvalue { ptr, i32 } poison, ptr %71, 0
  %74 = insertvalue { ptr, i32 } %73, i32 %72, 1
  resume { ptr, i32 } %74
}