; Function Attrs: mustprogress uwtable
define internal fastcc void @_ZN2cvL11initOpenEXREv() unnamed_addr #3 personality ptr @__gxx_personality_v0 {
  %1 = alloca %"class.std::__cxx11::basic_stringstream", align 8
  %2 = alloca %"class.std::__cxx11::basic_string", align 8
  %3 = alloca %"class.std::__cxx11::basic_string", align 8
  %4 = alloca %"class.std::allocator", align 1
  %5 = load atomic i8, ptr @_ZGVZN2cvL16isOpenEXREnabledEvE20PARAM_ENABLE_OPENEXR acquire, align 8
  %6 = icmp eq i8 %5, 0
  br i1 %6, label %7, label %_ZN2cvL16isOpenEXREnabledEv.exit, !prof !34

7:                                                ; preds = %0
  %8 = tail call i32 @__cxa_guard_acquire(ptr nonnull @_ZGVZN2cvL16isOpenEXREnabledEvE20PARAM_ENABLE_OPENEXR) #23
  %.not.i = icmp eq i32 %8, 0
  br i1 %.not.i, label %_ZN2cvL16isOpenEXREnabledEv.exit, label %9

9:                                                ; preds = %7
  %10 = invoke noundef zeroext i1 @_ZN2cv5utils29getConfigurationParameterBoolEPKcb(ptr noundef nonnull @.str.20, i1 noundef zeroext true)
          to label %11 unwind label %13

11:                                               ; preds = %9
  %12 = zext i1 %10 to i8
  store i8 %12, ptr @_ZZN2cvL16isOpenEXREnabledEvE20PARAM_ENABLE_OPENEXR, align 1
  tail call void @__cxa_guard_release(ptr nonnull @_ZGVZN2cvL16isOpenEXREnabledEvE20PARAM_ENABLE_OPENEXR) #23
  br label %_ZN2cvL16isOpenEXREnabledEv.exit

common.resume:                                    ; preds = %38, %46, %13
  %common.resume.op = phi { ptr, i32 } [ %14, %13 ], [ %.pn14, %46 ], [ %.pn, %38 ]
  resume { ptr, i32 } %common.resume.op

13:                                               ; preds = %9
  %14 = landingpad { ptr, i32 }
          cleanup
  tail call void @__cxa_guard_abort(ptr nonnull @_ZGVZN2cvL16isOpenEXREnabledEvE20PARAM_ENABLE_OPENEXR) #23
  br label %common.resume

_ZN2cvL16isOpenEXREnabledEv.exit:                 ; preds = %0, %7, %11
  %15 = load i8, ptr @_ZZN2cvL16isOpenEXREnabledEvE20PARAM_ENABLE_OPENEXR, align 1
  %16 = trunc nuw i8 %15 to i1
  br i1 %16, label %47, label %17

17:                                               ; preds = %_ZN2cvL16isOpenEXREnabledEv.exit
  %18 = tail call noundef ptr @_ZN2cv5utils7logging8internal15getGlobalLogTagEv()
  %.not = icmp eq ptr %18, null
  br i1 %.not, label %23, label %19

19:                                               ; preds = %17
  %20 = getelementptr inbounds i8, ptr %18, i64 8
  %21 = load i32, ptr %20, align 8
  %22 = icmp slt i32 %21, 3
  br i1 %22, label %39, label %23

23:                                               ; preds = %19, %17
  call void @_ZNSt7__cxx1118basic_stringstreamIcSt11char_traitsIcESaIcEEC1Ev(ptr noundef nonnull align 8 dereferenceable(128) %1)
  %24 = getelementptr inbounds i8, ptr %1, i64 16
  %25 = invoke noundef nonnull align 8 dereferenceable(8) ptr @_ZStlsISt11char_traitsIcEERSt13basic_ostreamIcT_ES5_PKc(ptr noundef nonnull align 8 dereferenceable(8) %24, ptr noundef nonnull @.str.19)
          to label %26 unwind label %34

26:                                               ; preds = %23
  br i1 %.not, label %29, label %27

27:                                               ; preds = %26
  %28 = load ptr, ptr %18, align 8
  br label %29

29:                                               ; preds = %26, %27
  %30 = phi ptr [ %28, %27 ], [ null, %26 ]
  invoke void @_ZNKSt7__cxx1118basic_stringstreamIcSt11char_traitsIcESaIcEE3strEv(ptr dead_on_unwind nonnull writable sret(%"class.std::__cxx11::basic_string") align 8 %2, ptr noundef nonnull align 8 dereferenceable(128) %1)
          to label %31 unwind label %34

31:                                               ; preds = %29
  %32 = call noundef ptr @_ZNKSt7__cxx1112basic_stringIcSt11char_traitsIcESaIcEE5c_strEv(ptr noundef nonnull align 8 dereferenceable(32) %2) #23
  invoke void @_ZN2cv5utils7logging8internal17writeLogMessageExENS1_8LogLevelEPKcS5_iS5_S5_(i32 noundef 3, ptr noundef %30, ptr noundef nonnull @.str.10, i32 noundef 102, ptr noundef nonnull @__func__._ZN2cvL11initOpenEXREv, ptr noundef %32)
          to label %33 unwind label %36

33:                                               ; preds = %31
  call void @_ZNSt7__cxx1112basic_stringIcSt11char_traitsIcESaIcEED1Ev(ptr noundef nonnull align 8 dereferenceable(32) %2) #23
  call void @_ZNSt7__cxx1118basic_stringstreamIcSt11char_traitsIcESaIcEED1Ev(ptr noundef nonnull align 8 dereferenceable(128) %1) #23
  br label %39

34:                                               ; preds = %29, %23
  %35 = landingpad { ptr, i32 }
          cleanup
  br label %38

36:                                               ; preds = %31
  %37 = landingpad { ptr, i32 }
          cleanup
  call void @_ZNSt7__cxx1112basic_stringIcSt11char_traitsIcESaIcEED1Ev(ptr noundef nonnull align 8 dereferenceable(32) %2) #23
  br label %38

38:                                               ; preds = %36, %34
  %.pn = phi { ptr, i32 } [ %37, %36 ], [ %35, %34 ]
  call void @_ZNSt7__cxx1118basic_stringstreamIcSt11char_traitsIcESaIcEED1Ev(ptr noundef nonnull align 8 dereferenceable(128) %1) #23
  br label %common.resume

39:                                               ; preds = %19, %33
  call void @_ZNSaIcEC1Ev(ptr noundef nonnull align 1 dereferenceable(1) %4) #23
  invoke void @_ZNSt7__cxx1112basic_stringIcSt11char_traitsIcESaIcEEC1EPKcRKS3_(ptr noundef nonnull align 8 dereferenceable(32) %3, ptr noundef nonnull @.str.19, ptr noundef nonnull align 1 dereferenceable(1) %4)
          to label %40 unwind label %42

40:                                               ; preds = %39
  invoke void @_ZN2cv5errorEiRKNSt7__cxx1112basic_stringIcSt11char_traitsIcESaIcEEEPKcS9_i(i32 noundef -213, ptr noundef nonnull align 8 dereferenceable(32) %3, ptr noundef nonnull @__func__._ZN2cvL11initOpenEXREv, ptr noundef nonnull @.str.10, i32 noundef 103) #27
          to label %41 unwind label %44

41:                                               ; preds = %40
  unreachable

42:                                               ; preds = %39
  %43 = landingpad { ptr, i32 }
          cleanup
  br label %46

44:                                               ; preds = %40
  %45 = landingpad { ptr, i32 }
          cleanup
  call void @_ZNSt7__cxx1112basic_stringIcSt11char_traitsIcESaIcEED1Ev(ptr noundef nonnull align 8 dereferenceable(32) %3) #23
  br label %46

46:                                               ; preds = %44, %42
  %.pn14 = phi { ptr, i32 } [ %45, %44 ], [ %43, %42 ]
  call void @_ZNSaIcED1Ev(ptr noundef nonnull align 1 dereferenceable(1) %4) #23
  br label %common.resume

47:                                               ; preds = %_ZN2cvL16isOpenEXREnabledEv.exit
  ret void
}